; Function Attrs: mustprogress uwtable
define internal void @"_ZN5boost4asio6detail17executor_function8completeINS1_7binder1IZZ4mainENK3$_0clEvEUlRKNS_6system10error_codeEE_S7_EESaIvEEEvPNS2_9impl_baseEb"(ptr noundef %0, i1 noundef zeroext %1) #9 align 2 personality ptr @__gxx_personality_v0 {
  %3 = alloca %"class.std::allocator.61", align 1
  %4 = alloca %"struct.boost::asio::detail::executor_function::impl<boost::asio::detail::binder1<(lambda at /home/dtcxzyw/WorkSpace/Projects/compilers/llvm-opt-benchmark/bench/msgpack/msgpack-c/example/boost/asio_send_recv_zlib.cpp:72:13), boost::system::error_code>, std::allocator<void>>::ptr", align 8
  %5 = alloca %"class.boost::asio::detail::binder1.132", align 8
  call void @llvm.lifetime.start.p0(i64 1, ptr nonnull %3) #37
  call void @llvm.lifetime.start.p0(i64 24, ptr nonnull %4) #37
  store ptr %3, ptr %4, align 8, !tbaa !962
  %6 = getelementptr inbounds nuw i8, ptr %4, i64 8
  %7 = getelementptr inbounds nuw i8, ptr %4, i64 16
  call void @llvm.lifetime.start.p0(i64 80, ptr nonnull %5) #37
  %8 = getelementptr inbounds nuw i8, ptr %0, i64 8
  call void @llvm.memcpy.p0.p0.i64(ptr noundef nonnull align 8 dereferenceable(80) %5, ptr noundef nonnull readonly align 8 dereferenceable(80) %8, i64 64, i1 false), !tbaa.struct !780
  %9 = getelementptr inbounds nuw i8, ptr %5, i64 64
  %10 = getelementptr inbounds nuw i8, ptr %0, i64 72
  call void @llvm.memcpy.p0.p0.i64(ptr noundef nonnull align 8 dereferenceable(16) %9, ptr noundef nonnull readonly align 8 dereferenceable(16) %10, i64 16, i1 false), !tbaa.struct !286
  store ptr null, ptr %7, align 8, !tbaa !958
  %11 = call align 8 ptr @llvm.threadlocal.address.p0(ptr align 8 @_ZN5boost4asio6detail15keyword_tss_ptrINS1_10call_stackINS1_14thread_contextENS1_16thread_info_baseEE7contextEE6value_E)
  %12 = load ptr, ptr %11, align 8, !tbaa !332
  %.not.i.i.i = icmp eq ptr %12, null
  br i1 %.not.i.i.i, label %_ZN5boost4asio6detail10call_stackINS1_14thread_contextENS1_16thread_info_baseEE3topEv.exit.thread.i.i, label %_ZN5boost4asio6detail10call_stackINS1_14thread_contextENS1_16thread_info_baseEE3topEv.exit.i.i

_ZN5boost4asio6detail10call_stackINS1_14thread_contextENS1_16thread_info_baseEE3topEv.exit.i.i: ; preds = %2
  %13 = getelementptr inbounds nuw i8, ptr %12, i64 8
  %14 = load ptr, ptr %13, align 8, !tbaa !331
  %.not.i.i = icmp eq ptr %14, null
  br i1 %.not.i.i, label %_ZN5boost4asio6detail10call_stackINS1_14thread_contextENS1_16thread_info_baseEE3topEv.exit.thread.i.i, label %15

15:                                               ; preds = %_ZN5boost4asio6detail10call_stackINS1_14thread_contextENS1_16thread_info_baseEE3topEv.exit.i.i
  %16 = getelementptr inbounds nuw i8, ptr %14, i64 16
  %17 = load ptr, ptr %16, align 8, !tbaa !117
  %18 = icmp eq ptr %17, null
  br i1 %18, label %19, label %_ZN5boost4asio6detail10call_stackINS1_14thread_contextENS1_16thread_info_baseEE3topEv.exit.thread.i.i

19:                                               ; preds = %15
  %20 = getelementptr inbounds nuw i8, ptr %0, i64 96
  %21 = load i8, ptr %20, align 1, !tbaa !19
  store i8 %21, ptr %0, align 1, !tbaa !19
  store ptr %0, ptr %16, align 8, !tbaa !117
  br label %22

_ZN5boost4asio6detail10call_stackINS1_14thread_contextENS1_16thread_info_baseEE3topEv.exit.thread.i.i: ; preds = %15, %_ZN5boost4asio6detail10call_stackINS1_14thread_contextENS1_16thread_info_baseEE3topEv.exit.i.i, %2
  call void @_ZdlPv(ptr noundef nonnull %0) #37
  br label %22

22:                                               ; preds = %_ZN5boost4asio6detail10call_stackINS1_14thread_contextENS1_16thread_info_baseEE3topEv.exit.thread.i.i, %19
  store ptr null, ptr %6, align 8, !tbaa !961
  br i1 %1, label %23, label %"_ZN5boost4asio6detail17executor_function4implINS1_7binder1IZZ4mainENK3$_0clEvEUlRKNS_6system10error_codeEE_S7_EESaIvEE3ptrD2Ev.exit"

23:                                               ; preds = %22
  invoke fastcc void @"_ZN5boost4asio6detail7binder1IZZ4mainENK3$_0clEvEUlRKNS_6system10error_codeEE_S5_EclEv"(ptr noundef nonnull align 8 dereferenceable(80) %5)
          to label %"_ZN5boost4asio6detail17executor_function4implINS1_7binder1IZZ4mainENK3$_0clEvEUlRKNS_6system10error_codeEE_S7_EESaIvEE3ptrD2Ev.exit" unwind label %24

24:                                               ; preds = %23
  %25 = landingpad { ptr, i32 }
          cleanup
  call void @llvm.lifetime.end.p0(i64 80, ptr nonnull %5) #37
  call fastcc void @"_ZN5boost4asio6detail17executor_function4implINS1_7binder1IZZ4mainENK3$_0clEvEUlRKNS_6system10error_codeEE_S7_EESaIvEE3ptrD2Ev"(ptr noundef nonnull align 8 dereferenceable(24) %4) #37
  call void @llvm.lifetime.end.p0(i64 24, ptr nonnull %4) #37
  call void @llvm.lifetime.end.p0(i64 1, ptr nonnull %3) #37
  resume { ptr, i32 } %25

"_ZN5boost4asio6detail17executor_function4implINS1_7binder1IZZ4mainENK3$_0clEvEUlRKNS_6system10error_codeEE_S7_EESaIvEE3ptrD2Ev.exit": ; preds = %22, %23
  call void @llvm.lifetime.end.p0(i64 80, ptr nonnull %5) #37
  call void @llvm.lifetime.end.p0(i64 24, ptr nonnull %4) #37
  call void @llvm.lifetime.end.p0(i64 1, ptr nonnull %3) #37
  ret void
}